; ModuleID = 'source-C-CXX/25/631.cpp'
source_filename = "source-C-CXX/25/631.cpp"
target datalayout = "e-m:e-p270:32:32-p271:32:32-p272:64:64-i64:64-f80:128-n8:16:32:64-S128"
target triple = "x86_64-pc-linux-gnu"

%"class.std::ios_base::Init" = type { i8 }
%"class.std::basic_istream" = type { i32 (...)**, i64, %"class.std::basic_ios" }
%"class.std::basic_ios" = type { %"class.std::ios_base", %"class.std::basic_ostream"*, i8, i8, %"class.std::basic_streambuf"*, %"class.std::ctype"*, %"class.std::num_put"*, %"class.std::num_get"* }
%"class.std::ios_base" = type { i32 (...)**, i64, i64, i32, i32, i32, %"struct.std::ios_base::_Callback_list"*, %"struct.std::ios_base::_Words", [8 x %"struct.std::ios_base::_Words"], i32, %"struct.std::ios_base::_Words"*, %"class.std::locale" }
%"struct.std::ios_base::_Callback_list" = type { %"struct.std::ios_base::_Callback_list"*, void (i32, %"class.std::ios_base"*, i32)*, i32, i32 }
%"struct.std::ios_base::_Words" = type { i8*, i64 }
%"class.std::locale" = type { %"class.std::locale::_Impl"* }
%"class.std::locale::_Impl" = type { i32, %"class.std::locale::facet"**, i64, %"class.std::locale::facet"**, i8** }
%"class.std::locale::facet" = type <{ i32 (...)**, i32, [4 x i8] }>
%"class.std::basic_ostream" = type { i32 (...)**, %"class.std::basic_ios" }
%"class.std::basic_streambuf" = type { i32 (...)**, i8*, i8*, i8*, i8*, i8*, i8*, %"class.std::locale" }
%"class.std::ctype" = type <{ %"class.std::locale::facet.base", [4 x i8], %struct.__locale_struct*, i8, [7 x i8], i32*, i32*, i16*, i8, [256 x i8], [256 x i8], i8, [6 x i8] }>
%"class.std::locale::facet.base" = type <{ i32 (...)**, i32 }>
%struct.__locale_struct = type { [13 x %struct.__locale_data*], i16*, i32*, i32*, [13 x i8*] }
%struct.__locale_data = type opaque
%"class.std::num_put" = type { %"class.std::locale::facet.base", [4 x i8] }
%"class.std::num_get" = type { %"class.std::locale::facet.base", [4 x i8] }

@_ZStL8__ioinit = internal global %"class.std::ios_base::Init" zeroinitializer, align 1
@__dso_handle = external hidden global i8
@_ZSt3cin = external global %"class.std::basic_istream", align 8
@_ZSt4cout = external global %"class.std::basic_ostream", align 8
@llvm.global_ctors = appending global [1 x { i32, void ()*, i8* }] [{ i32, void ()*, i8* } { i32 65535, void ()* @_GLOBAL__sub_I_631.cpp, i8* null }]

declare void @_ZNSt8ios_base4InitC1Ev(%"class.std::ios_base::Init"* nonnull align 1 dereferenceable(1)) unnamed_addr #0

; Function Attrs: nounwind
declare void @_ZNSt8ios_base4InitD1Ev(%"class.std::ios_base::Init"* nonnull align 1 dereferenceable(1)) unnamed_addr #1

; Function Attrs: nofree nounwind
declare i32 @__cxa_atexit(void (i8*)*, i8*, i8*) local_unnamed_addr #2

; Function Attrs: mustprogress norecurse sspstrong uwtable
define dso_local i32 @main() local_unnamed_addr #3 {
  %1 = alloca i8, align 1
  %2 = alloca [101 x i8], align 16
  %3 = getelementptr inbounds [101 x i8], [101 x i8]* %2, i64 0, i64 0
  call void @llvm.lifetime.start.p0i8(i64 101, i8* nonnull %3) #7
  %4 = load i8*, i8** bitcast (%"class.std::basic_istream"* @_ZSt3cin to i8**), align 8, !tbaa !5
  %5 = getelementptr i8, i8* %4, i64 -24
  %6 = bitcast i8* %5 to i64*
  %7 = load i64, i64* %6, align 8
  %8 = add nsw i64 %7, 240
  %9 = getelementptr inbounds i8, i8* bitcast (%"class.std::basic_istream"* @_ZSt3cin to i8*), i64 %8
  %10 = bitcast i8* %9 to %"class.std::ctype"**
  %11 = load %"class.std::ctype"*, %"class.std::ctype"** %10, align 8, !tbaa !8
  %12 = icmp eq %"class.std::ctype"* %11, null
  br i1 %12, label %13, label %14

13:                                               ; preds = %0
  tail call void @_ZSt16__throw_bad_castv() #8
  unreachable

14:                                               ; preds = %0
  %15 = getelementptr inbounds %"class.std::ctype", %"class.std::ctype"* %11, i64 0, i32 8
  %16 = load i8, i8* %15, align 8, !tbaa !13
  %17 = icmp eq i8 %16, 0
  br i1 %17, label %21, label %18

18:                                               ; preds = %14
  %19 = getelementptr inbounds %"class.std::ctype", %"class.std::ctype"* %11, i64 0, i32 9, i64 10
  %20 = load i8, i8* %19, align 1, !tbaa !15
  br label %27

21:                                               ; preds = %14
  tail call void @_ZNKSt5ctypeIcE13_M_widen_initEv(%"class.std::ctype"* nonnull align 8 dereferenceable(570) %11)
  %22 = bitcast %"class.std::ctype"* %11 to i8 (%"class.std::ctype"*, i8)***
  %23 = load i8 (%"class.std::ctype"*, i8)**, i8 (%"class.std::ctype"*, i8)*** %22, align 8, !tbaa !5
  %24 = getelementptr inbounds i8 (%"class.std::ctype"*, i8)*, i8 (%"class.std::ctype"*, i8)** %23, i64 6
  %25 = load i8 (%"class.std::ctype"*, i8)*, i8 (%"class.std::ctype"*, i8)** %24, align 8
  %26 = tail call signext i8 %25(%"class.std::ctype"* nonnull align 8 dereferenceable(570) %11, i8 signext 10)
  br label %27

27:                                               ; preds = %18, %21
  %28 = phi i8 [ %20, %18 ], [ %26, %21 ]
  %29 = call nonnull align 8 dereferenceable(16) %"class.std::basic_istream"* @_ZNSi7getlineEPclc(%"class.std::basic_istream"* nonnull align 8 dereferenceable(16) @_ZSt3cin, i8* nonnull %3, i64 101, i8 signext %28)
  br label %30

30:                                               ; preds = %147, %27
  %31 = phi i8 [ 0, %27 ], [ %149, %147 ]
  %32 = sext i8 %31 to i64
  %33 = getelementptr inbounds [101 x i8], [101 x i8]* %2, i64 0, i64 %32
  %34 = load i8, i8* %33, align 1, !tbaa !15
  switch i8 %34, label %147 [
    i8 0, label %35
    i8 32, label %39
  ]

35:                                               ; preds = %30
  %36 = icmp sgt i8 %31, 0
  br i1 %36, label %37, label %157

37:                                               ; preds = %35
  %38 = zext i8 %31 to i64
  br label %150

39:                                               ; preds = %30
  %40 = add nsw i64 %32, 1
  %41 = getelementptr inbounds [101 x i8], [101 x i8]* %2, i64 0, i64 %40
  %42 = load i8, i8* %41, align 1, !tbaa !15
  %43 = icmp eq i8 %42, 32
  br i1 %43, label %44, label %147

44:                                               ; preds = %39
  %45 = icmp slt i8 %31, 101
  br i1 %45, label %46, label %145

46:                                               ; preds = %44
  %47 = sub i8 100, %31
  %48 = zext i8 %47 to i64
  %49 = add nuw nsw i64 %48, 1
  %50 = icmp ult i8 %47, 7
  br i1 %50, label %135, label %51

51:                                               ; preds = %46
  %52 = icmp ult i8 %47, 31
  br i1 %52, label %115, label %53

53:                                               ; preds = %51
  %54 = and i64 %49, 480
  %55 = add nsw i64 %54, -32
  %56 = lshr exact i64 %55, 5
  %57 = add nuw nsw i64 %56, 1
  %58 = and i64 %57, 1
  %59 = icmp eq i64 %55, 0
  br i1 %59, label %93, label %60

60:                                               ; preds = %53
  %61 = and i64 %57, 1152921504606846974
  br label %62

62:                                               ; preds = %62, %60
  %63 = phi i64 [ 0, %60 ], [ %90, %62 ]
  %64 = phi i64 [ %61, %60 ], [ %91, %62 ]
  %65 = add i64 %63, %32
  %66 = add nsw i64 %65, 1
  %67 = getelementptr inbounds [101 x i8], [101 x i8]* %2, i64 0, i64 %66
  %68 = bitcast i8* %67 to <16 x i8>*
  %69 = load <16 x i8>, <16 x i8>* %68, align 1, !tbaa !15
  %70 = getelementptr inbounds i8, i8* %67, i64 16
  %71 = bitcast i8* %70 to <16 x i8>*
  %72 = load <16 x i8>, <16 x i8>* %71, align 1, !tbaa !15
  %73 = getelementptr inbounds [101 x i8], [101 x i8]* %2, i64 0, i64 %65
  %74 = bitcast i8* %73 to <16 x i8>*
  store <16 x i8> %69, <16 x i8>* %74, align 1, !tbaa !15
  %75 = getelementptr inbounds i8, i8* %73, i64 16
  %76 = bitcast i8* %75 to <16 x i8>*
  store <16 x i8> %72, <16 x i8>* %76, align 1, !tbaa !15
  %77 = or i64 %63, 32
  %78 = add i64 %77, %32
  %79 = add nsw i64 %78, 1
  %80 = getelementptr inbounds [101 x i8], [101 x i8]* %2, i64 0, i64 %79
  %81 = bitcast i8* %80 to <16 x i8>*
  %82 = load <16 x i8>, <16 x i8>* %81, align 1, !tbaa !15
  %83 = getelementptr inbounds i8, i8* %80, i64 16
  %84 = bitcast i8* %83 to <16 x i8>*
  %85 = load <16 x i8>, <16 x i8>* %84, align 1, !tbaa !15
  %86 = getelementptr inbounds [101 x i8], [101 x i8]* %2, i64 0, i64 %78
  %87 = bitcast i8* %86 to <16 x i8>*
  store <16 x i8> %82, <16 x i8>* %87, align 1, !tbaa !15
  %88 = getelementptr inbounds i8, i8* %86, i64 16
  %89 = bitcast i8* %88 to <16 x i8>*
  store <16 x i8> %85, <16 x i8>* %89, align 1, !tbaa !15
  %90 = add nuw i64 %63, 64
  %91 = add i64 %64, -2
  %92 = icmp eq i64 %91, 0
  br i1 %92, label %93, label %62, !llvm.loop !16

93:                                               ; preds = %62, %53
  %94 = phi i64 [ 0, %53 ], [ %90, %62 ]
  %95 = icmp eq i64 %58, 0
  br i1 %95, label %109, label %96

96:                                               ; preds = %93
  %97 = add i64 %94, %32
  %98 = add nsw i64 %97, 1
  %99 = getelementptr inbounds [101 x i8], [101 x i8]* %2, i64 0, i64 %98
  %100 = bitcast i8* %99 to <16 x i8>*
  %101 = load <16 x i8>, <16 x i8>* %100, align 1, !tbaa !15
  %102 = getelementptr inbounds i8, i8* %99, i64 16
  %103 = bitcast i8* %102 to <16 x i8>*
  %104 = load <16 x i8>, <16 x i8>* %103, align 1, !tbaa !15
  %105 = getelementptr inbounds [101 x i8], [101 x i8]* %2, i64 0, i64 %97
  %106 = bitcast i8* %105 to <16 x i8>*
  store <16 x i8> %101, <16 x i8>* %106, align 1, !tbaa !15
  %107 = getelementptr inbounds i8, i8* %105, i64 16
  %108 = bitcast i8* %107 to <16 x i8>*
  store <16 x i8> %104, <16 x i8>* %108, align 1, !tbaa !15
  br label %109

109:                                              ; preds = %93, %96
  %110 = icmp eq i64 %49, %54
  br i1 %110, label %145, label %111

111:                                              ; preds = %109
  %112 = add nsw i64 %54, %32
  %113 = and i64 %49, 24
  %114 = icmp eq i64 %113, 0
  br i1 %114, label %135, label %115

115:                                              ; preds = %51, %111
  %116 = phi i64 [ %54, %111 ], [ 0, %51 ]
  %117 = sub i8 100, %31
  %118 = zext i8 %117 to i64
  %119 = add nuw nsw i64 %118, 1
  %120 = and i64 %119, 504
  %121 = add nsw i64 %120, %32
  br label %122

122:                                              ; preds = %122, %115
  %123 = phi i64 [ %116, %115 ], [ %131, %122 ]
  %124 = add i64 %123, %32
  %125 = add nsw i64 %124, 1
  %126 = getelementptr inbounds [101 x i8], [101 x i8]* %2, i64 0, i64 %125
  %127 = bitcast i8* %126 to <8 x i8>*
  %128 = load <8 x i8>, <8 x i8>* %127, align 1, !tbaa !15
  %129 = getelementptr inbounds [101 x i8], [101 x i8]* %2, i64 0, i64 %124
  %130 = bitcast i8* %129 to <8 x i8>*
  store <8 x i8> %128, <8 x i8>* %130, align 1, !tbaa !15
  %131 = add nuw i64 %123, 8
  %132 = icmp eq i64 %131, %120
  br i1 %132, label %133, label %122, !llvm.loop !19

133:                                              ; preds = %122
  %134 = icmp eq i64 %119, %120
  br i1 %134, label %145, label %135

135:                                              ; preds = %46, %111, %133
  %136 = phi i64 [ %32, %46 ], [ %112, %111 ], [ %121, %133 ]
  br label %137

137:                                              ; preds = %135, %137
  %138 = phi i64 [ %139, %137 ], [ %136, %135 ]
  %139 = add nsw i64 %138, 1
  %140 = getelementptr inbounds [101 x i8], [101 x i8]* %2, i64 0, i64 %139
  %141 = load i8, i8* %140, align 1, !tbaa !15
  %142 = getelementptr inbounds [101 x i8], [101 x i8]* %2, i64 0, i64 %138
  store i8 %141, i8* %142, align 1, !tbaa !15
  %143 = trunc i64 %139 to i8
  %144 = icmp eq i8 %143, 101
  br i1 %144, label %145, label %137, !llvm.loop !20

145:                                              ; preds = %137, %109, %133, %44
  %146 = add i8 %31, -1
  br label %147

147:                                              ; preds = %30, %145, %39
  %148 = phi i8 [ %146, %145 ], [ %31, %39 ], [ %31, %30 ]
  %149 = add i8 %148, 1
  br label %30, !llvm.loop !22

150:                                              ; preds = %37, %150
  %151 = phi i64 [ 0, %37 ], [ %155, %150 ]
  %152 = getelementptr inbounds [101 x i8], [101 x i8]* %2, i64 0, i64 %151
  %153 = load i8, i8* %152, align 1, !tbaa !15
  call void @llvm.lifetime.start.p0i8(i64 1, i8* nonnull %1)
  store i8 %153, i8* %1, align 1, !tbaa !15
  %154 = call nonnull align 8 dereferenceable(8) %"class.std::basic_ostream"* @_ZSt16__ostream_insertIcSt11char_traitsIcEERSt13basic_ostreamIT_T0_ES6_PKS3_l(%"class.std::basic_ostream"* nonnull align 8 dereferenceable(8) @_ZSt4cout, i8* nonnull %1, i64 1)
  call void @llvm.lifetime.end.p0i8(i64 1, i8* nonnull %1)
  %155 = add nuw nsw i64 %151, 1
  %156 = icmp eq i64 %155, %38
  br i1 %156, label %157, label %150, !llvm.loop !23

157:                                              ; preds = %150, %35
  call void @llvm.lifetime.end.p0i8(i64 101, i8* nonnull %3) #7
  ret i32 0
}

; Function Attrs: argmemonly mustprogress nofree nosync nounwind willreturn
declare void @llvm.lifetime.start.p0i8(i64 immarg, i8* nocapture) #4

; Function Attrs: argmemonly mustprogress nofree nosync nounwind willreturn
declare void @llvm.lifetime.end.p0i8(i64 immarg, i8* nocapture) #4

declare nonnull align 8 dereferenceable(16) %"class.std::basic_istream"* @_ZNSi7getlineEPclc(%"class.std::basic_istream"* nonnull align 8 dereferenceable(16), i8*, i64, i8 signext) local_unnamed_addr #0

; Function Attrs: noreturn
declare void @_ZSt16__throw_bad_castv() local_unnamed_addr #5

declare void @_ZNKSt5ctypeIcE13_M_widen_initEv(%"class.std::ctype"* nonnull align 8 dereferenceable(570)) local_unnamed_addr #0

declare nonnull align 8 dereferenceable(8) %"class.std::basic_ostream"* @_ZSt16__ostream_insertIcSt11char_traitsIcEERSt13basic_ostreamIT_T0_ES6_PKS3_l(%"class.std::basic_ostream"* nonnull align 8 dereferenceable(8), i8*, i64) local_unnamed_addr #0

; Function Attrs: sspstrong uwtable
define internal void @_GLOBAL__sub_I_631.cpp() #6 section ".text.startup" {
  tail call void @_ZNSt8ios_base4InitC1Ev(%"class.std::ios_base::Init"* nonnull align 1 dereferenceable(1) @_ZStL8__ioinit)
  %1 = tail call i32 @__cxa_atexit(void (i8*)* bitcast (void (%"class.std::ios_base::Init"*)* @_ZNSt8ios_base4InitD1Ev to void (i8*)*), i8* getelementptr inbounds (%"class.std::ios_base::Init", %"class.std::ios_base::Init"* @_ZStL8__ioinit, i64 0, i32 0), i8* nonnull @__dso_handle) #7
  ret void
}


!llvm.module.flags = !{!0, !1, !2, !3}
!llvm.ident = !{!4}

!0 = !{i32 1, !"wchar_size", i32 4}
!1 = !{i32 7, !"PIC Level", i32 2}
!2 = !{i32 7, !"PIE Level", i32 2}
!3 = !{i32 7, !"uwtable", i32 1}
!4 = !{!"clang version 13.0.0"}
!5 = !{!6, !6, i64 0}
!6 = !{!"vtable pointer", !7, i64 0}
!7 = !{!"Simple C++ TBAA"}
!8 = !{!9, !10, i64 240}
!9 = !{!"_ZTSSt9basic_iosIcSt11char_traitsIcEE", !10, i64 216, !11, i64 224, !12, i64 225, !10, i64 232, !10, i64 240, !10, i64 248, !10, i64 256}
!10 = !{!"any pointer", !11, i64 0}
!11 = !{!"omnipotent char", !7, i64 0}
!12 = !{!"bool", !11, i64 0}
!13 = !{!14, !11, i64 56}
!14 = !{!"_ZTSSt5ctypeIcE", !10, i64 16, !12, i64 24, !10, i64 32, !10, i64 40, !10, i64 48, !11, i64 56, !11, i64 57, !11, i64 313, !11, i64 569}
!15 = !{!11, !11, i64 0}
!16 = distinct !{!16, !17, !18}
!17 = !{!"llvm.loop.mustprogress"}
!18 = !{!"llvm.loop.isvectorized", i32 1}
!19 = distinct !{!19, !17, !18}
!20 = distinct !{!20, !17, !21, !18}
!21 = !{!"llvm.loop.unroll.runtime.disable"}
!22 = distinct !{!22, !17}
!23 = distinct !{!23, !17}
